; Function Attrs: nounwind uwtable
define internal i32 @check_PVK(ptr readnone captures(none) %0, i32 %1, ptr readnone captures(none) %2, ptr noundef %3, i64 noundef %4) #1 {
  %6 = alloca ptr, align 8
  %7 = alloca i32, align 4
  %8 = alloca i32, align 4
  call void @llvm.lifetime.start.p0(i64 8, ptr nonnull %6) #8
  store ptr %3, ptr %6, align 8, !tbaa !36
  call void @llvm.lifetime.start.p0(i64 4, ptr nonnull %7) #8
  store i32 0, ptr %7, align 4, !tbaa !6
  call void @llvm.lifetime.start.p0(i64 4, ptr nonnull %8) #8
  store i32 0, ptr %8, align 4, !tbaa !6
  %9 = trunc i64 %4 to i32
  %10 = call i32 @ossl_do_PVK_header(ptr noundef nonnull %6, i32 noundef %9, i32 noundef 0, ptr noundef nonnull %7, ptr noundef nonnull %8) #8
  call void @llvm.lifetime.end.p0(i64 4, ptr nonnull %8) #8
  call void @llvm.lifetime.end.p0(i64 4, ptr nonnull %7) #8
  call void @llvm.lifetime.end.p0(i64 8, ptr nonnull %6) #8
  ret i32 %10
}